; Function Attrs: mustprogress nounwind uwtable
define dso_local void @_ZN30cmInstallCxxModuleBmiGeneratorD0Ev(ptr noundef nonnull align 8 dereferenceable(281) %0) unnamed_addr #4 align 2 {
  store ptr getelementptr inbounds ({ [13 x ptr] }, ptr @_ZTV30cmInstallCxxModuleBmiGenerator, i64 0, i32 0, i64 2), ptr %0, align 8
  %2 = getelementptr inbounds i8, ptr %0, i64 248
  tail call void @_ZNSt7__cxx1112basic_stringIcSt11char_traitsIcESaIcEED1Ev(ptr noundef nonnull align 8 dereferenceable(32) %2) #11
  %3 = getelementptr inbounds i8, ptr %0, i64 200
  tail call void @_ZNSt7__cxx1112basic_stringIcSt11char_traitsIcESaIcEED1Ev(ptr noundef nonnull align 8 dereferenceable(32) %3) #11
  tail call void @_ZN18cmInstallGeneratorD2Ev(ptr noundef nonnull align 8 dereferenceable(200) %0) #11
  tail call void @_ZdlPv(ptr noundef nonnull %0) #12
  ret void
}